target datalayout = "e-m:e-p270:32:32-p271:32:32-p272:64:64-i64:64-i128:128-f80:128-n8:16:32:64-S128"
target triple = "x86_64-unknown-linux-gnu"

@.str.58 = private unnamed_addr constant [28 x i8] c"ERR_NAPI_TSFN_GET_UNDEFINED\00", align 1
@.str.59 = private unnamed_addr constant [35 x i8] c"Failed to retrieve undefined value\00", align 1
@.str.60 = private unnamed_addr constant [22 x i8] c"ERR_NAPI_TSFN_CALL_JS\00", align 1
@.str.61 = private unnamed_addr constant [27 x i8] c"Failed to call JS callback\00", align 1

; Function Attrs: mustprogress nounwind uwtable
define internal void @_ZN6v8impl12_GLOBAL__N_118ThreadSafeFunction6CallJsEP10napi_env__P12napi_value__PvS6_(ptr noundef %env, ptr noundef %cb, ptr noundef %context, ptr noundef %data) #4 align 2 {
entry:
  %env.addr = alloca ptr, align 8
  %cb.addr = alloca ptr, align 8
  %context.addr = alloca ptr, align 8
  %data.addr = alloca ptr, align 8
  %recv = alloca ptr, align 8
  %status = alloca i32, align 4
  store ptr %env, ptr %env.addr, align 8
  store ptr %cb, ptr %cb.addr, align 8
  store ptr %context, ptr %context.addr, align 8
  store ptr %data, ptr %data.addr, align 8
  %0 = load ptr, ptr %env.addr, align 8
  %cmp = icmp eq ptr %0, null
  br i1 %cmp, label %if.end11, label %lor.lhs.false

lor.lhs.false:                                    ; preds = %entry
  %1 = load ptr, ptr %cb.addr, align 8
  %cmp1 = icmp eq ptr %1, null
  br i1 %cmp1, label %if.end11, label %if.then

if.then:                                          ; preds = %lor.lhs.false
  %2 = load ptr, ptr %env.addr, align 8
  %call = call i32 @napi_get_undefined(ptr noundef %2, ptr noundef %recv)
  store i32 %call, ptr %status, align 4
  %3 = load i32, ptr %status, align 4
  %cmp2 = icmp ne i32 %3, 0
  br i1 %cmp2, label %if.then3, label %if.end

if.then3:                                         ; preds = %if.then
  %4 = load ptr, ptr %env.addr, align 8
  %call4 = call i32 @napi_throw_error(ptr noundef %4, ptr noundef @.str.58, ptr noundef @.str.59)
  br label %if.end11

if.end:                                           ; preds = %if.then
  %5 = load ptr, ptr %env.addr, align 8
  %6 = load ptr, ptr %recv, align 8
  %7 = load ptr, ptr %cb.addr, align 8
  %call5 = call i32 @napi_call_function(ptr noundef %5, ptr noundef %6, ptr noundef %7, i64 noundef 0, ptr noundef null, ptr noundef null)
  store i32 %call5, ptr %status, align 4
  %8 = load i32, ptr %status, align 4
  %cmp6 = icmp ne i32 %8, 0
  br i1 %cmp6, label %land.lhs.true, label %if.end10

land.lhs.true:                                    ; preds = %if.end
  %9 = load i32, ptr %status, align 4
  %cmp7 = icmp ne i32 %9, 10
  br i1 %cmp7, label %if.then8, label %if.end10

if.then8:                                         ; preds = %land.lhs.true
  %10 = load ptr, ptr %env.addr, align 8
  %call9 = call i32 @napi_throw_error(ptr noundef %10, ptr noundef @.str.60, ptr noundef @.str.61)
  br label %if.end11

if.end10:                                         ; preds = %land.lhs.true, %if.end
  br label %if.end11

if.end11:                                         ; preds = %if.end10, %if.then8, %if.then3, %lor.lhs.false, %entry
  ret void
}