; Function Attrs: mustprogress nounwind uwtable
define internal void @_ZN6v8impl12_GLOBAL__N_118ThreadSafeFunction6CallJsEP10napi_env__P12napi_value__PvS6_(ptr noundef %env, ptr noundef %cb, ptr nocapture readnone %context, ptr nocapture readnone %data) #3 align 2 {
entry:
  %recv = alloca ptr, align 8
  %cmp = icmp eq ptr %env, null
  %cmp1 = icmp eq ptr %cb, null
  %or.cond = or i1 %cmp, %cmp1
  br i1 %or.cond, label %if.end11, label %if.then

if.then:                                          ; preds = %entry
  %call = call i32 @napi_get_undefined(ptr noundef nonnull %env, ptr noundef nonnull %recv) #21
  %cmp2.not = icmp eq i32 %call, 0
  br i1 %cmp2.not, label %if.end, label %if.then3

if.then3:                                         ; preds = %if.then
  %call4 = call i32 @napi_throw_error(ptr noundef nonnull %env, ptr noundef nonnull @.str.58, ptr noundef nonnull @.str.59) #21
  br label %if.end11

if.end:                                           ; preds = %if.then
  %0 = load ptr, ptr %recv, align 8
  %call5 = call i32 @napi_call_function(ptr noundef nonnull %env, ptr noundef %0, ptr noundef nonnull %cb, i64 noundef 0, ptr noundef null, ptr noundef null) #21
  switch i32 %call5, label %if.then8 [
    i32 10, label %if.end11
    i32 0, label %if.end11
  ]

if.then8:                                         ; preds = %if.end
  %call9 = call i32 @napi_throw_error(ptr noundef nonnull %env, ptr noundef nonnull @.str.60, ptr noundef nonnull @.str.61) #21
  br label %if.end11

if.end11:                                         ; preds = %if.end, %if.end, %if.then8, %if.then3, %entry
  ret void
}